target datalayout = "e-m:e-p270:32:32-p271:32:32-p272:64:64-i64:64-i128:128-f80:128-n8:16:32:64-S128"
target triple = "x86_64-pc-linux-gnu"

%struct.uv__queue = type { ptr, ptr }
%struct.uv_loop_s = type { ptr, i32, %struct.uv__queue, %union.anon.1, ptr, i32, i64, i32, %struct.uv__queue, %struct.uv__queue, ptr, i32, i32, %struct.uv__queue, %union.pthread_mutex_t, %struct.uv_async_s, %union.pthread_rwlock_t, ptr, %struct.uv__queue, %struct.uv__queue, %struct.uv__queue, %struct.uv__queue, %struct.uv__queue, ptr, %struct.uv__io_s, i32, %struct.anon, i64, i64, [2 x i32], %struct.uv__io_s, %struct.uv_signal_s, i32, %struct.uv__io_s, ptr, i32 }
%union.anon.1 = type { ptr }
%union.pthread_mutex_t = type { %struct.__pthread_mutex_s }
%struct.__pthread_mutex_s = type { i32, i32, i32, i32, i32, i16, i16, %struct.__pthread_internal_list }
%struct.__pthread_internal_list = type { ptr, ptr }
%struct.uv_async_s = type { ptr, ptr, i32, ptr, %struct.uv__queue, %union.anon.2, ptr, i32, ptr, %struct.uv__queue, i32 }
%union.anon.2 = type { [4 x ptr] }
%union.pthread_rwlock_t = type { %struct.__pthread_rwlock_arch_t }
%struct.__pthread_rwlock_arch_t = type { i32, i32, i32, i32, i32, i32, i32, i32, i8, [7 x i8], i64, i32 }
%struct.anon = type { ptr, i32 }
%struct.uv_signal_s = type { ptr, ptr, i32, ptr, %struct.uv__queue, %union.anon.3, ptr, i32, ptr, i32, %struct.anon.4, i32, i32 }
%union.anon.3 = type { [4 x ptr] }
%struct.anon.4 = type { ptr, ptr, ptr, i32 }
%struct.uv__io_s = type { ptr, %struct.uv__queue, %struct.uv__queue, i32, i32, i32 }
%struct.uv_stream_s = type { ptr, ptr, i32, ptr, %struct.uv__queue, %union.anon, ptr, i32, i64, ptr, ptr, ptr, ptr, %struct.uv__io_s, %struct.uv__queue, %struct.uv__queue, ptr, i32, i32, ptr }
%union.anon = type { [4 x ptr] }
%struct.uv__stream_queued_fds_s = type { i32, i32, [1 x i32] }

; Function Attrs: nounwind uwtable
define internal void @uv__stream_osx_interrupt_select(ptr noundef %0) #0 {
  %2 = alloca ptr, align 8
  store ptr %0, ptr %2, align 8
  ret void
}

; Function Attrs: nounwind uwtable
define dso_local i32 @uv_read_stop(ptr noundef %0) #0 {
  %2 = alloca i32, align 4
  %3 = alloca ptr, align 8
  store ptr %0, ptr %3, align 8
  %4 = load ptr, ptr %3, align 8
  %5 = getelementptr inbounds nuw %struct.uv_stream_s, ptr %4, i32 0, i32 7
  %6 = load i32, ptr %5, align 8
  %7 = and i32 %6, 4096
  %8 = icmp ne i32 %7, 0
  br i1 %8, label %10, label %9

9:                                                ; preds = %1
  store i32 0, ptr %2, align 4
  br label %53

10:                                               ; preds = %1
  %11 = load ptr, ptr %3, align 8
  %12 = getelementptr inbounds nuw %struct.uv_stream_s, ptr %11, i32 0, i32 7
  %13 = load i32, ptr %12, align 8
  %14 = and i32 %13, -4097
  store i32 %14, ptr %12, align 8
  %15 = load ptr, ptr %3, align 8
  %16 = getelementptr inbounds nuw %struct.uv_stream_s, ptr %15, i32 0, i32 1
  %17 = load ptr, ptr %16, align 8
  %18 = load ptr, ptr %3, align 8
  %19 = getelementptr inbounds nuw %struct.uv_stream_s, ptr %18, i32 0, i32 13
  call void @uv__io_stop(ptr noundef %17, ptr noundef %19, i32 noundef 1)
  br label %20

20:                                               ; preds = %10
  %21 = load ptr, ptr %3, align 8
  %22 = getelementptr inbounds nuw %struct.uv_stream_s, ptr %21, i32 0, i32 7
  %23 = load i32, ptr %22, align 8
  %24 = and i32 %23, 4
  %25 = icmp eq i32 %24, 0
  br i1 %25, label %26, label %27

26:                                               ; preds = %20
  br label %47

27:                                               ; preds = %20
  %28 = load ptr, ptr %3, align 8
  %29 = getelementptr inbounds nuw %struct.uv_stream_s, ptr %28, i32 0, i32 7
  %30 = load i32, ptr %29, align 8
  %31 = and i32 %30, -5
  store i32 %31, ptr %29, align 8
  %32 = load ptr, ptr %3, align 8
  %33 = getelementptr inbounds nuw %struct.uv_stream_s, ptr %32, i32 0, i32 7
  %34 = load i32, ptr %33, align 8
  %35 = and i32 %34, 8
  %36 = icmp ne i32 %35, 0
  br i1 %36, label %37, label %46

37:                                               ; preds = %27
  br label %38

38:                                               ; preds = %37
  %39 = load ptr, ptr %3, align 8
  %40 = getelementptr inbounds nuw %struct.uv_stream_s, ptr %39, i32 0, i32 1
  %41 = load ptr, ptr %40, align 8
  %42 = getelementptr inbounds nuw %struct.uv_loop_s, ptr %41, i32 0, i32 1
  %43 = load i32, ptr %42, align 8
  %44 = add i32 %43, -1
  store i32 %44, ptr %42, align 8
  br label %45

45:                                               ; preds = %38
  br label %46

46:                                               ; preds = %45, %27
  br label %47

47:                                               ; preds = %46, %26
  %48 = load ptr, ptr %3, align 8
  call void @uv__stream_osx_interrupt_select(ptr noundef %48)
  %49 = load ptr, ptr %3, align 8
  %50 = getelementptr inbounds nuw %struct.uv_stream_s, ptr %49, i32 0, i32 10
  store ptr null, ptr %50, align 8
  %51 = load ptr, ptr %3, align 8
  %52 = getelementptr inbounds nuw %struct.uv_stream_s, ptr %51, i32 0, i32 9
  store ptr null, ptr %52, align 8
  store i32 0, ptr %2, align 4
  br label %53

53:                                               ; preds = %47, %9
  %54 = load i32, ptr %2, align 4
  ret i32 %54
}

; Function Attrs: nounwind uwtable
define hidden void @uv__stream_close(ptr noundef %0) #0 {
  %2 = alloca ptr, align 8
  %3 = alloca i32, align 4
  %4 = alloca ptr, align 8
  store ptr %0, ptr %2, align 8
  call void @llvm.lifetime.start.p0(i64 4, ptr %3) #8
  call void @llvm.lifetime.start.p0(i64 8, ptr %4) #8
  %5 = load ptr, ptr %2, align 8
  %6 = getelementptr inbounds nuw %struct.uv_stream_s, ptr %5, i32 0, i32 1
  %7 = load ptr, ptr %6, align 8
  %8 = load ptr, ptr %2, align 8
  %9 = getelementptr inbounds nuw %struct.uv_stream_s, ptr %8, i32 0, i32 13
  call void @uv__io_close(ptr noundef %7, ptr noundef %9)
  %10 = load ptr, ptr %2, align 8
  %11 = call i32 @uv_read_stop(ptr noundef %10)
  br label %12

12:                                               ; preds = %1
  %13 = load ptr, ptr %2, align 8
  %14 = getelementptr inbounds nuw %struct.uv_stream_s, ptr %13, i32 0, i32 7
  %15 = load i32, ptr %14, align 8
  %16 = and i32 %15, 4
  %17 = icmp eq i32 %16, 0
  br i1 %17, label %18, label %19

18:                                               ; preds = %12
  br label %41

19:                                               ; preds = %12
  %20 = load ptr, ptr %2, align 8
  %21 = getelementptr inbounds nuw %struct.uv_stream_s, ptr %20, i32 0, i32 7
  %22 = load i32, ptr %21, align 8
  %23 = and i32 %22, -5
  store i32 %23, ptr %21, align 8
  %24 = load ptr, ptr %2, align 8
  %25 = getelementptr inbounds nuw %struct.uv_stream_s, ptr %24, i32 0, i32 7
  %26 = load i32, ptr %25, align 8
  %27 = and i32 %26, 8
  %28 = icmp ne i32 %27, 0
  br i1 %28, label %29, label %39

29:                                               ; preds = %19
  br label %30

30:                                               ; preds = %29
  %31 = load ptr, ptr %2, align 8
  %32 = getelementptr inbounds nuw %struct.uv_stream_s, ptr %31, i32 0, i32 1
  %33 = load ptr, ptr %32, align 8
  %34 = getelementptr inbounds nuw %struct.uv_loop_s, ptr %33, i32 0, i32 1
  %35 = load i32, ptr %34, align 8
  %36 = add i32 %35, -1
  store i32 %36, ptr %34, align 8
  br label %37

37:                                               ; preds = %30
  br label %38

38:                                               ; preds = %37
  br label %39

39:                                               ; preds = %38, %19
  br label %40

40:                                               ; preds = %39
  br label %41

41:                                               ; preds = %40, %18
  %42 = load ptr, ptr %2, align 8
  %43 = getelementptr inbounds nuw %struct.uv_stream_s, ptr %42, i32 0, i32 7
  %44 = load i32, ptr %43, align 8
  %45 = and i32 %44, -49153
  store i32 %45, ptr %43, align 8
  %46 = load ptr, ptr %2, align 8
  %47 = getelementptr inbounds nuw %struct.uv_stream_s, ptr %46, i32 0, i32 13
  %48 = getelementptr inbounds nuw %struct.uv__io_s, ptr %47, i32 0, i32 5
  %49 = load i32, ptr %48, align 8
  %50 = icmp ne i32 %49, -1
  br i1 %50, label %51, label %67

51:                                               ; preds = %41
  %52 = load ptr, ptr %2, align 8
  %53 = getelementptr inbounds nuw %struct.uv_stream_s, ptr %52, i32 0, i32 13
  %54 = getelementptr inbounds nuw %struct.uv__io_s, ptr %53, i32 0, i32 5
  %55 = load i32, ptr %54, align 8
  %56 = icmp sgt i32 %55, 2
  br i1 %56, label %57, label %63

57:                                               ; preds = %51
  %58 = load ptr, ptr %2, align 8
  %59 = getelementptr inbounds nuw %struct.uv_stream_s, ptr %58, i32 0, i32 13
  %60 = getelementptr inbounds nuw %struct.uv__io_s, ptr %59, i32 0, i32 5
  %61 = load i32, ptr %60, align 8
  %62 = call i32 @uv__close(i32 noundef %61)
  br label %63

63:                                               ; preds = %57, %51
  %64 = load ptr, ptr %2, align 8
  %65 = getelementptr inbounds nuw %struct.uv_stream_s, ptr %64, i32 0, i32 13
  %66 = getelementptr inbounds nuw %struct.uv__io_s, ptr %65, i32 0, i32 5
  store i32 -1, ptr %66, align 8
  br label %67

67:                                               ; preds = %63, %41
  %68 = load ptr, ptr %2, align 8
  %69 = getelementptr inbounds nuw %struct.uv_stream_s, ptr %68, i32 0, i32 18
  %70 = load i32, ptr %69, align 4
  %71 = icmp ne i32 %70, -1
  br i1 %71, label %72, label %79

72:                                               ; preds = %67
  %73 = load ptr, ptr %2, align 8
  %74 = getelementptr inbounds nuw %struct.uv_stream_s, ptr %73, i32 0, i32 18
  %75 = load i32, ptr %74, align 4
  %76 = call i32 @uv__close(i32 noundef %75)
  %77 = load ptr, ptr %2, align 8
  %78 = getelementptr inbounds nuw %struct.uv_stream_s, ptr %77, i32 0, i32 18
  store i32 -1, ptr %78, align 4
  br label %79

79:                                               ; preds = %72, %67
  %80 = load ptr, ptr %2, align 8
  %81 = getelementptr inbounds nuw %struct.uv_stream_s, ptr %80, i32 0, i32 19
  %82 = load ptr, ptr %81, align 8
  %83 = icmp ne ptr %82, null
  br i1 %83, label %84, label %111

84:                                               ; preds = %79
  %85 = load ptr, ptr %2, align 8
  %86 = getelementptr inbounds nuw %struct.uv_stream_s, ptr %85, i32 0, i32 19
  %87 = load ptr, ptr %86, align 8
  store ptr %87, ptr %4, align 8
  store i32 0, ptr %3, align 4
  br label %88

88:                                               ; preds = %102, %84
  %89 = load i32, ptr %3, align 4
  %90 = load ptr, ptr %4, align 8
  %91 = getelementptr inbounds nuw %struct.uv__stream_queued_fds_s, ptr %90, i32 0, i32 1
  %92 = load i32, ptr %91, align 4
  %93 = icmp ult i32 %89, %92
  br i1 %93, label %94, label %105

94:                                               ; preds = %88
  %95 = load ptr, ptr %4, align 8
  %96 = getelementptr inbounds nuw %struct.uv__stream_queued_fds_s, ptr %95, i32 0, i32 2
  %97 = load i32, ptr %3, align 4
  %98 = zext i32 %97 to i64
  %99 = getelementptr inbounds nuw [1 x i32], ptr %96, i64 0, i64 %98
  %100 = load i32, ptr %99, align 4
  %101 = call i32 @uv__close(i32 noundef %100)
  br label %102

102:                                              ; preds = %94
  %103 = load i32, ptr %3, align 4
  %104 = add i32 %103, 1
  store i32 %104, ptr %3, align 4
  br label %88

105:                                              ; preds = %88
  %106 = load ptr, ptr %2, align 8
  %107 = getelementptr inbounds nuw %struct.uv_stream_s, ptr %106, i32 0, i32 19
  %108 = load ptr, ptr %107, align 8
  call void @uv__free(ptr noundef %108)
  %109 = load ptr, ptr %2, align 8
  %110 = getelementptr inbounds nuw %struct.uv_stream_s, ptr %109, i32 0, i32 19
  store ptr null, ptr %110, align 8
  br label %111

111:                                              ; preds = %105, %79
  call void @llvm.lifetime.end.p0(i64 8, ptr %4) #8
  call void @llvm.lifetime.end.p0(i64 4, ptr %3) #8
  ret void
}